target datalayout = "e-m:e-p270:32:32-p271:32:32-p272:64:64-i64:64-i128:128-f80:128-n8:16:32:64-S128"
target triple = "x86_64-pc-linux-gnu"

@compress_algo_pos = internal global [11 x ptr] [ptr @.str, ptr @.str.1, ptr @.str.2, ptr @.str.3, ptr @.str, ptr @.str.4, ptr @.str, ptr @.str.5, ptr @.str.6, ptr @.str.7, ptr @.str.8], align 16

; Function Attrs: nounwind uwtable
define ptr @tng_compress_pos_algo(ptr noundef %0) #0 {
  %2 = alloca ptr, align 8
  %3 = alloca i32, align 4
  store ptr %0, ptr %2, align 8, !tbaa !3
  call void @llvm.lifetime.start.p0(i64 4, ptr %3) #7
  %4 = load ptr, ptr %2, align 8, !tbaa !3
  %5 = getelementptr inbounds i32, ptr %4, i64 2
  %6 = load i32, ptr %5, align 4, !tbaa !8
  store i32 %6, ptr %3, align 4, !tbaa !8
  %7 = load i32, ptr %3, align 4, !tbaa !8
  %8 = icmp slt i32 %7, 0
  br i1 %8, label %9, label %10

9:                                                ; preds = %1
  store i32 0, ptr %3, align 4, !tbaa !8
  br label %10

10:                                               ; preds = %9, %1
  %11 = load i32, ptr %3, align 4, !tbaa !8
  %12 = icmp sge i32 %11, 11
  br i1 %12, label %13, label %14

13:                                               ; preds = %10
  store i32 0, ptr %3, align 4, !tbaa !8
  br label %14

14:                                               ; preds = %13, %10
  %15 = load i32, ptr %3, align 4, !tbaa !8
  %16 = sext i32 %15 to i64
  %17 = getelementptr inbounds [11 x ptr], ptr @compress_algo_pos, i64 0, i64 %16
  %18 = load ptr, ptr %17, align 8, !tbaa !12
  call void @llvm.lifetime.end.p0(i64 4, ptr %3) #7
  ret ptr %18
}