; Function Attrs: mustprogress nofree norecurse nosync nounwind willreturn memory(argmem: read) uwtable
define ptr @tng_compress_pos_algo(ptr noundef readonly captures(none) %0) local_unnamed_addr #7 {
  %2 = getelementptr inbounds nuw i8, ptr %0, i64 8
  %3 = load i32, ptr %2, align 4, !tbaa !3
  %spec.store.select = tail call i32 @llvm.smax.i32(i32 %3, i32 0)
  %4 = icmp sgt i32 %3, 10
  %spec.store.select1 = select i1 %4, i32 0, i32 %spec.store.select
  %5 = zext nneg i32 %spec.store.select1 to i64
  %6 = getelementptr inbounds nuw [11 x ptr], ptr @compress_algo_pos, i64 0, i64 %5
  %7 = load ptr, ptr %6, align 8, !tbaa !43
  ret ptr %7
}